; Function Attrs: nounwind uwtable
define ptr @l_Array_foldlMUnsafe_fold___at_Lean_Meta_getFVarSetToGeneralize___spec__71(ptr noundef readonly captures(none) %0, i64 noundef %1, i64 noundef %2, ptr noundef %3) local_unnamed_addr #0 {
  %.not40 = icmp eq i64 %1, %2
  br i1 %.not40, label %._crit_edge, label %.lr.ph

.lr.ph:                                           ; preds = %4
  %5 = getelementptr inbounds nuw i8, ptr %0, i64 24
  br label %6

6:                                                ; preds = %.lr.ph, %lean_dec.exit27
  %.02042 = phi i64 [ %1, %.lr.ph ], [ %42, %lean_dec.exit27 ]
  %.02241 = phi ptr [ %3, %.lr.ph ], [ %.224, %lean_dec.exit27 ]
  %7 = getelementptr inbounds nuw [0 x ptr], ptr %5, i64 0, i64 %.02042
  %8 = load ptr, ptr %7, align 8, !tbaa !4
  %9 = ptrtoint ptr %8 to i64
  %10 = and i64 %9, 1
  %.not.i30 = icmp eq i64 %10, 0
  br i1 %.not.i30, label %11, label %lean_array_uget.exit.thread

11:                                               ; preds = %6
  %.val.i.i = load i32, ptr %8, align 4, !tbaa !8
  %12 = icmp sgt i32 %.val.i.i, 0
  br i1 %12, label %13, label %15, !prof !11

13:                                               ; preds = %11
  %14 = add nuw i32 %.val.i.i, 1
  store i32 %14, ptr %8, align 4, !tbaa !8
  br label %lean_array_uget.exit

15:                                               ; preds = %11
  %.not.i.i = icmp eq i32 %.val.i.i, 0
  br i1 %.not.i.i, label %lean_array_uget.exit, label %16

16:                                               ; preds = %15
  tail call void @lean_inc_ref_cold(ptr noundef nonnull %8) #4
  br label %lean_array_uget.exit

lean_array_uget.exit:                             ; preds = %13, %15, %16
  %17 = tail call zeroext i8 @l_Lean_Expr_isFVar(ptr noundef nonnull %8) #4
  %18 = add i64 %.02042, 1
  %19 = icmp eq i8 %17, 0
  br i1 %19, label %24, label %31

lean_array_uget.exit.thread:                      ; preds = %6
  %20 = tail call zeroext i8 @l_Lean_Expr_isFVar(ptr noundef %8) #4
  %21 = add i64 %.02042, 1
  %22 = icmp eq i8 %20, 0
  br i1 %22, label %lean_dec.exit27, label %.thread43

.thread43:                                        ; preds = %lean_array_uget.exit.thread
  %23 = tail call ptr @l_Lean_Expr_fvarId_x21(ptr noundef %8) #4
  br label %lean_dec.exit

24:                                               ; preds = %lean_array_uget.exit
  %25 = load i32, ptr %8, align 4, !tbaa !8
  %26 = icmp sgt i32 %25, 1
  br i1 %26, label %27, label %29, !prof !11

27:                                               ; preds = %24
  %28 = add nsw i32 %25, -1
  store i32 %28, ptr %8, align 4, !tbaa !8
  br label %lean_dec.exit27

29:                                               ; preds = %24
  %.not.i = icmp eq i32 %25, 0
  br i1 %.not.i, label %lean_dec.exit27, label %30

30:                                               ; preds = %29
  tail call void @lean_dec_ref_cold(ptr noundef nonnull %8) #4
  br label %lean_dec.exit27

31:                                               ; preds = %lean_array_uget.exit
  %32 = tail call ptr @l_Lean_Expr_fvarId_x21(ptr noundef nonnull %8) #4
  %33 = load i32, ptr %8, align 4, !tbaa !8
  %34 = icmp sgt i32 %33, 1
  br i1 %34, label %35, label %37, !prof !11

35:                                               ; preds = %31
  %36 = add nsw i32 %33, -1
  store i32 %36, ptr %8, align 4, !tbaa !8
  br label %lean_dec.exit

37:                                               ; preds = %31
  %.not.i28 = icmp eq i32 %33, 0
  br i1 %.not.i28, label %lean_dec.exit, label %38

38:                                               ; preds = %37
  tail call void @lean_dec_ref_cold(ptr noundef nonnull %8) #4
  br label %lean_dec.exit

lean_dec.exit:                                    ; preds = %.thread43, %38, %37, %35
  %39 = phi ptr [ %23, %.thread43 ], [ %32, %38 ], [ %32, %37 ], [ %32, %35 ]
  %40 = phi i64 [ %21, %.thread43 ], [ %18, %38 ], [ %18, %37 ], [ %18, %35 ]
  %41 = tail call ptr @l_Lean_RBNode_insert___at_Lean_FVarIdSet_insert___spec__1(ptr noundef %.02241, ptr noundef %39, ptr noundef nonnull inttoptr (i64 1 to ptr)) #4
  br label %lean_dec.exit27

lean_dec.exit27:                                  ; preds = %lean_array_uget.exit.thread, %27, %29, %30, %lean_dec.exit
  %42 = phi i64 [ %40, %lean_dec.exit ], [ %18, %30 ], [ %18, %29 ], [ %18, %27 ], [ %21, %lean_array_uget.exit.thread ]
  %.224 = phi ptr [ %41, %lean_dec.exit ], [ %.02241, %30 ], [ %.02241, %29 ], [ %.02241, %27 ], [ %.02241, %lean_array_uget.exit.thread ]
  %.not = icmp eq i64 %42, %2
  br i1 %.not, label %._crit_edge, label %6

._crit_edge:                                      ; preds = %lean_dec.exit27, %4
  %.022.lcssa = phi ptr [ %3, %4 ], [ %.224, %lean_dec.exit27 ]
  ret ptr %.022.lcssa
}